; Function Attrs: mustprogress nounwind uwtable
define internal void @_ZNK12_GLOBAL__N_126AArch64InstructionSelector13renderFPImm64ERN4llvm19MachineInstrBuilderERKNS1_12MachineInstrEi(ptr nocapture nonnull readnone align 8 %0, ptr nocapture noundef nonnull readonly align 8 dereferenceable(16) %1, ptr nocapture noundef nonnull readonly align 8 dereferenceable(70) %2, i32 %3) #0 align 2 {
  %5 = alloca %"class.llvm::MachineOperand", align 8
  %6 = getelementptr inbounds nuw i8, ptr %2, i64 32
  %7 = load ptr, ptr %6, align 8
  %8 = getelementptr inbounds i8, ptr %7, i64 48
  %9 = load ptr, ptr %8, align 8
  %10 = getelementptr inbounds nuw i8, ptr %9, i64 24
  %11 = tail call fastcc noundef i32 @_ZN4llvm10AArch64_AML10getFP64ImmERKNS_7APFloatE(ptr noundef nonnull align 8 dereferenceable(32) %10)
  %12 = sext i32 %11 to i64
  call void @llvm.lifetime.start.p0(i64 32, ptr nonnull %5)
  %13 = getelementptr inbounds nuw i8, ptr %1, i64 8
  %14 = load ptr, ptr %13, align 8
  %15 = load ptr, ptr %1, align 8
  store i32 1, ptr %5, align 8, !alias.scope !304
  %16 = getelementptr inbounds nuw i8, ptr %5, i64 8
  store ptr null, ptr %16, align 8, !alias.scope !304
  %17 = getelementptr inbounds nuw i8, ptr %5, i64 16
  store i64 %12, ptr %17, align 8, !alias.scope !304
  call void @_ZN4llvm12MachineInstr10addOperandERNS_15MachineFunctionERKNS_14MachineOperandE(ptr noundef nonnull align 8 dereferenceable(70) %14, ptr noundef nonnull align 8 dereferenceable(1041) %15, ptr noundef nonnull align 8 dereferenceable(32) %5) #24
  call void @llvm.lifetime.end.p0(i64 32, ptr nonnull %5)
  ret void
}